target datalayout = "e-m:e-p270:32:32-p271:32:32-p272:64:64-i64:64-i128:128-f80:128-n8:16:32:64-S128"
target triple = "x86_64-pc-linux-gnu"

%struct._packet_info = type { ptr, ptr, i32, i32, %struct.nstime_t, %struct.nstime_t, %struct.nstime_t, i8, ptr, ptr, ptr, ptr, %struct._address, %struct._address, %struct._address, %struct._address, %struct._address, %struct._address, i32, ptr, i8, [3 x i8], %struct.anon, i32, i32, i32, i32, ptr, i8, ptr, ptr, i16, i16, i32, i32, i16, i32, i32, ptr, ptr, ptr, i8, i8, i16, i16, i16, i32, i16, i16, ptr, ptr, ptr, ptr, ptr, i32, i32 }
%struct.nstime_t = type { i64, i32 }
%struct._address = type { i32, i32, ptr, ptr }
%struct.anon = type { i8, [3 x i8] }
%struct._someip_sd_entries_tap = type { i8, i16, i8, i32, i16, i16, i32 }

@.str.78 = private unnamed_addr constant [14 x i8] c"Offer Service\00", align 1
@.str.80 = private unnamed_addr constant [19 x i8] c"Stop Offer Service\00", align 1
@.str.82 = private unnamed_addr constant [13 x i8] c"Find Service\00", align 1
@.str.84 = private unnamed_addr constant [21 x i8] c"Subscribe Eventgroup\00", align 1
@.str.86 = private unnamed_addr constant [26 x i8] c"Stop Subscribe Eventgroup\00", align 1
@.str.180 = private unnamed_addr constant [25 x i8] c"Subscribe Eventgroup Ack\00", align 1
@.str.193 = private unnamed_addr constant [29 x i8] c"%s:%u: failed assertion \22%s\22\00", align 1
@.str.194 = private unnamed_addr constant [35 x i8] c"epan/dissectors/packet-someip-sd.c\00", align 1
@.str.195 = private unnamed_addr constant [2 x i8] c"p\00", align 1
@someipsd_entries_stats_tree_packet.tmp_addr_str = internal global [256 x i8] zeroinitializer, align 16
@.str.196 = private unnamed_addr constant [8 x i8] c"%s (%s)\00", align 1
@st_str_ip_src = internal global ptr @.str.198, align 8
@st_node_ip_src = internal global i32 -1, align 4
@st_str_ip_dst = internal global ptr @.str.199, align 8
@st_node_ip_dst = internal global i32 -1, align 4
@someipsd_entries_stats_tree_packet.tmp_str = internal global [128 x i8] zeroinitializer, align 16
@.str.197 = private unnamed_addr constant [26 x i8] c"Subscribe Eventgroup Nack\00", align 1

; Function Attrs: null_pointer_is_valid sspstrong uwtable
define internal i32 @someipsd_entries_stats_tree_packet(ptr noundef %0, ptr noundef %1, ptr noundef %2, ptr noundef %3, i32 noundef %4) #0 {
  %6 = alloca ptr, align 8
  %7 = alloca ptr, align 8
  %8 = alloca ptr, align 8
  %9 = alloca ptr, align 8
  %10 = alloca i32, align 4
  %11 = alloca ptr, align 8
  %12 = alloca i32, align 4
  %13 = alloca i32, align 4
  %14 = alloca i32, align 4
  store ptr %0, ptr %6, align 8
  store ptr %1, ptr %7, align 8
  store ptr %2, ptr %8, align 8
  store ptr %3, ptr %9, align 8
  store i32 %4, ptr %10, align 4
  %15 = load ptr, ptr %9, align 8
  %16 = icmp ne ptr %15, null
  br i1 %16, label %17, label %18

17:                                               ; preds = %5
  br label %20

18:                                               ; preds = %5
  call void (ptr, ...) @proto_report_dissector_bug(ptr noundef @.str.193, ptr noundef @.str.194, i32 noundef 1035, ptr noundef @.str.195) #8
  unreachable

19:                                               ; No predecessors!
  br label %20

20:                                               ; preds = %19, %17
  call void @llvm.lifetime.start.p0(i64 8, ptr %11) #7
  %21 = load ptr, ptr %9, align 8
  store ptr %21, ptr %11, align 8
  %22 = load ptr, ptr %7, align 8
  %23 = getelementptr inbounds nuw %struct._packet_info, ptr %22, i32 0, i32 51
  %24 = load ptr, ptr %23, align 8
  %25 = load ptr, ptr %7, align 8
  %26 = getelementptr inbounds nuw %struct._packet_info, ptr %25, i32 0, i32 14
  %27 = call ptr @address_to_str(ptr noundef %24, ptr noundef %26)
  %28 = load ptr, ptr %7, align 8
  %29 = getelementptr inbounds nuw %struct._packet_info, ptr %28, i32 0, i32 14
  %30 = call ptr @address_to_name(ptr noundef %29)
  %31 = call i32 (ptr, i64, i32, i64, ptr, ...) @__snprintf_chk(ptr noundef @someipsd_entries_stats_tree_packet.tmp_addr_str, i64 noundef 255, i32 noundef 2, i64 noundef 256, ptr noundef @.str.196, ptr noundef %27, ptr noundef %30)
  %32 = load ptr, ptr %6, align 8
  %33 = load ptr, ptr @st_str_ip_src, align 8
  %34 = call i32 @stats_tree_manip_node_int(i32 noundef 0, ptr noundef %32, ptr noundef %33, i32 noundef 0, i1 noundef zeroext false, i32 noundef 1)
  call void @llvm.lifetime.start.p0(i64 4, ptr %12) #7
  %35 = load ptr, ptr %6, align 8
  %36 = load i32, ptr @st_node_ip_src, align 4
  %37 = call i32 @stats_tree_manip_node_int(i32 noundef 0, ptr noundef %35, ptr noundef @someipsd_entries_stats_tree_packet.tmp_addr_str, i32 noundef %36, i1 noundef zeroext true, i32 noundef 1)
  store i32 %37, ptr %12, align 4
  %38 = load ptr, ptr %7, align 8
  %39 = getelementptr inbounds nuw %struct._packet_info, ptr %38, i32 0, i32 51
  %40 = load ptr, ptr %39, align 8
  %41 = load ptr, ptr %7, align 8
  %42 = getelementptr inbounds nuw %struct._packet_info, ptr %41, i32 0, i32 15
  %43 = call ptr @address_to_str(ptr noundef %40, ptr noundef %42)
  %44 = load ptr, ptr %7, align 8
  %45 = getelementptr inbounds nuw %struct._packet_info, ptr %44, i32 0, i32 15
  %46 = call ptr @address_to_name(ptr noundef %45)
  %47 = call i32 (ptr, i64, i32, i64, ptr, ...) @__snprintf_chk(ptr noundef @someipsd_entries_stats_tree_packet.tmp_addr_str, i64 noundef 255, i32 noundef 2, i64 noundef 256, ptr noundef @.str.196, ptr noundef %43, ptr noundef %46)
  %48 = load ptr, ptr %6, align 8
  %49 = load ptr, ptr @st_str_ip_dst, align 8
  %50 = call i32 @stats_tree_manip_node_int(i32 noundef 0, ptr noundef %48, ptr noundef %49, i32 noundef 0, i1 noundef zeroext false, i32 noundef 1)
  call void @llvm.lifetime.start.p0(i64 4, ptr %13) #7
  %51 = load ptr, ptr %6, align 8
  %52 = load i32, ptr @st_node_ip_dst, align 4
  %53 = call i32 @stats_tree_manip_node_int(i32 noundef 0, ptr noundef %51, ptr noundef @someipsd_entries_stats_tree_packet.tmp_addr_str, i32 noundef %52, i1 noundef zeroext true, i32 noundef 1)
  store i32 %53, ptr %13, align 4
  call void @llvm.lifetime.start.p0(i64 4, ptr %14) #7
  %54 = load ptr, ptr %11, align 8
  %55 = getelementptr inbounds nuw %struct._someip_sd_entries_tap, ptr %54, i32 0, i32 6
  %56 = load i32, ptr %55, align 4
  %57 = icmp eq i32 %56, 0
  br i1 %57, label %58, label %106

58:                                               ; preds = %20
  %59 = load ptr, ptr %11, align 8
  %60 = getelementptr inbounds nuw %struct._someip_sd_entries_tap, ptr %59, i32 0, i32 0
  %61 = load i8, ptr %60, align 4
  %62 = zext i8 %61 to i32
  switch i32 %62, label %105 [
    i32 1, label %63
    i32 6, label %77
    i32 7, label %91
  ]

63:                                               ; preds = %58
  %64 = load ptr, ptr %11, align 8
  call void @stat_create_entry_summary_string(ptr noundef %64, ptr noundef @someipsd_entries_stats_tree_packet.tmp_str, i64 noundef 127)
  %65 = load ptr, ptr %6, align 8
  %66 = load i32, ptr %12, align 4
  %67 = call i32 @stats_tree_manip_node_int(i32 noundef 0, ptr noundef %65, ptr noundef @.str.80, i32 noundef %66, i1 noundef zeroext true, i32 noundef 1)
  store i32 %67, ptr %14, align 4
  %68 = load ptr, ptr %6, align 8
  %69 = load i32, ptr %14, align 4
  %70 = call i32 @stats_tree_manip_node_int(i32 noundef 0, ptr noundef %68, ptr noundef @someipsd_entries_stats_tree_packet.tmp_str, i32 noundef %69, i1 noundef zeroext false, i32 noundef 1)
  %71 = load ptr, ptr %6, align 8
  %72 = load i32, ptr %13, align 4
  %73 = call i32 @stats_tree_manip_node_int(i32 noundef 0, ptr noundef %71, ptr noundef @.str.80, i32 noundef %72, i1 noundef zeroext true, i32 noundef 1)
  store i32 %73, ptr %14, align 4
  %74 = load ptr, ptr %6, align 8
  %75 = load i32, ptr %14, align 4
  %76 = call i32 @stats_tree_manip_node_int(i32 noundef 0, ptr noundef %74, ptr noundef @someipsd_entries_stats_tree_packet.tmp_str, i32 noundef %75, i1 noundef zeroext false, i32 noundef 1)
  br label %105

77:                                               ; preds = %58
  %78 = load ptr, ptr %11, align 8
  call void @stat_create_entry_summary_string(ptr noundef %78, ptr noundef @someipsd_entries_stats_tree_packet.tmp_str, i64 noundef 127)
  %79 = load ptr, ptr %6, align 8
  %80 = load i32, ptr %12, align 4
  %81 = call i32 @stats_tree_manip_node_int(i32 noundef 0, ptr noundef %79, ptr noundef @.str.86, i32 noundef %80, i1 noundef zeroext true, i32 noundef 1)
  store i32 %81, ptr %14, align 4
  %82 = load ptr, ptr %6, align 8
  %83 = load i32, ptr %14, align 4
  %84 = call i32 @stats_tree_manip_node_int(i32 noundef 0, ptr noundef %82, ptr noundef @someipsd_entries_stats_tree_packet.tmp_str, i32 noundef %83, i1 noundef zeroext false, i32 noundef 1)
  %85 = load ptr, ptr %6, align 8
  %86 = load i32, ptr %13, align 4
  %87 = call i32 @stats_tree_manip_node_int(i32 noundef 0, ptr noundef %85, ptr noundef @.str.86, i32 noundef %86, i1 noundef zeroext true, i32 noundef 1)
  store i32 %87, ptr %14, align 4
  %88 = load ptr, ptr %6, align 8
  %89 = load i32, ptr %14, align 4
  %90 = call i32 @stats_tree_manip_node_int(i32 noundef 0, ptr noundef %88, ptr noundef @someipsd_entries_stats_tree_packet.tmp_str, i32 noundef %89, i1 noundef zeroext false, i32 noundef 1)
  br label %105

91:                                               ; preds = %58
  %92 = load ptr, ptr %11, align 8
  call void @stat_create_entry_summary_string(ptr noundef %92, ptr noundef @someipsd_entries_stats_tree_packet.tmp_str, i64 noundef 127)
  %93 = load ptr, ptr %6, align 8
  %94 = load i32, ptr %12, align 4
  %95 = call i32 @stats_tree_manip_node_int(i32 noundef 0, ptr noundef %93, ptr noundef @.str.197, i32 noundef %94, i1 noundef zeroext true, i32 noundef 1)
  store i32 %95, ptr %14, align 4
  %96 = load ptr, ptr %6, align 8
  %97 = load i32, ptr %14, align 4
  %98 = call i32 @stats_tree_manip_node_int(i32 noundef 0, ptr noundef %96, ptr noundef @someipsd_entries_stats_tree_packet.tmp_str, i32 noundef %97, i1 noundef zeroext false, i32 noundef 1)
  %99 = load ptr, ptr %6, align 8
  %100 = load i32, ptr %13, align 4
  %101 = call i32 @stats_tree_manip_node_int(i32 noundef 0, ptr noundef %99, ptr noundef @.str.197, i32 noundef %100, i1 noundef zeroext true, i32 noundef 1)
  store i32 %101, ptr %14, align 4
  %102 = load ptr, ptr %6, align 8
  %103 = load i32, ptr %14, align 4
  %104 = call i32 @stats_tree_manip_node_int(i32 noundef 0, ptr noundef %102, ptr noundef @someipsd_entries_stats_tree_packet.tmp_str, i32 noundef %103, i1 noundef zeroext false, i32 noundef 1)
  br label %105

105:                                              ; preds = %58, %91, %77, %63
  br label %168

106:                                              ; preds = %20
  %107 = load ptr, ptr %11, align 8
  %108 = getelementptr inbounds nuw %struct._someip_sd_entries_tap, ptr %107, i32 0, i32 0
  %109 = load i8, ptr %108, align 4
  %110 = zext i8 %109 to i32
  switch i32 %110, label %167 [
    i32 0, label %111
    i32 1, label %125
    i32 6, label %139
    i32 7, label %153
  ]

111:                                              ; preds = %106
  %112 = load ptr, ptr %11, align 8
  call void @stat_create_entry_summary_string(ptr noundef %112, ptr noundef @someipsd_entries_stats_tree_packet.tmp_str, i64 noundef 127)
  %113 = load ptr, ptr %6, align 8
  %114 = load i32, ptr %12, align 4
  %115 = call i32 @stats_tree_manip_node_int(i32 noundef 0, ptr noundef %113, ptr noundef @.str.82, i32 noundef %114, i1 noundef zeroext true, i32 noundef 1)
  store i32 %115, ptr %14, align 4
  %116 = load ptr, ptr %6, align 8
  %117 = load i32, ptr %14, align 4
  %118 = call i32 @stats_tree_manip_node_int(i32 noundef 0, ptr noundef %116, ptr noundef @someipsd_entries_stats_tree_packet.tmp_str, i32 noundef %117, i1 noundef zeroext false, i32 noundef 1)
  %119 = load ptr, ptr %6, align 8
  %120 = load i32, ptr %13, align 4
  %121 = call i32 @stats_tree_manip_node_int(i32 noundef 0, ptr noundef %119, ptr noundef @.str.82, i32 noundef %120, i1 noundef zeroext true, i32 noundef 1)
  store i32 %121, ptr %14, align 4
  %122 = load ptr, ptr %6, align 8
  %123 = load i32, ptr %14, align 4
  %124 = call i32 @stats_tree_manip_node_int(i32 noundef 0, ptr noundef %122, ptr noundef @someipsd_entries_stats_tree_packet.tmp_str, i32 noundef %123, i1 noundef zeroext false, i32 noundef 1)
  br label %167

125:                                              ; preds = %106
  %126 = load ptr, ptr %11, align 8
  call void @stat_create_entry_summary_string(ptr noundef %126, ptr noundef @someipsd_entries_stats_tree_packet.tmp_str, i64 noundef 127)
  %127 = load ptr, ptr %6, align 8
  %128 = load i32, ptr %12, align 4
  %129 = call i32 @stats_tree_manip_node_int(i32 noundef 0, ptr noundef %127, ptr noundef @.str.78, i32 noundef %128, i1 noundef zeroext true, i32 noundef 1)
  store i32 %129, ptr %14, align 4
  %130 = load ptr, ptr %6, align 8
  %131 = load i32, ptr %14, align 4
  %132 = call i32 @stats_tree_manip_node_int(i32 noundef 0, ptr noundef %130, ptr noundef @someipsd_entries_stats_tree_packet.tmp_str, i32 noundef %131, i1 noundef zeroext false, i32 noundef 1)
  %133 = load ptr, ptr %6, align 8
  %134 = load i32, ptr %13, align 4
  %135 = call i32 @stats_tree_manip_node_int(i32 noundef 0, ptr noundef %133, ptr noundef @.str.78, i32 noundef %134, i1 noundef zeroext true, i32 noundef 1)
  store i32 %135, ptr %14, align 4
  %136 = load ptr, ptr %6, align 8
  %137 = load i32, ptr %14, align 4
  %138 = call i32 @stats_tree_manip_node_int(i32 noundef 0, ptr noundef %136, ptr noundef @someipsd_entries_stats_tree_packet.tmp_str, i32 noundef %137, i1 noundef zeroext false, i32 noundef 1)
  br label %167

139:                                              ; preds = %106
  %140 = load ptr, ptr %11, align 8
  call void @stat_create_entry_summary_string(ptr noundef %140, ptr noundef @someipsd_entries_stats_tree_packet.tmp_str, i64 noundef 127)
  %141 = load ptr, ptr %6, align 8
  %142 = load i32, ptr %12, align 4
  %143 = call i32 @stats_tree_manip_node_int(i32 noundef 0, ptr noundef %141, ptr noundef @.str.84, i32 noundef %142, i1 noundef zeroext true, i32 noundef 1)
  store i32 %143, ptr %14, align 4
  %144 = load ptr, ptr %6, align 8
  %145 = load i32, ptr %14, align 4
  %146 = call i32 @stats_tree_manip_node_int(i32 noundef 0, ptr noundef %144, ptr noundef @someipsd_entries_stats_tree_packet.tmp_str, i32 noundef %145, i1 noundef zeroext false, i32 noundef 1)
  %147 = load ptr, ptr %6, align 8
  %148 = load i32, ptr %13, align 4
  %149 = call i32 @stats_tree_manip_node_int(i32 noundef 0, ptr noundef %147, ptr noundef @.str.84, i32 noundef %148, i1 noundef zeroext true, i32 noundef 1)
  store i32 %149, ptr %14, align 4
  %150 = load ptr, ptr %6, align 8
  %151 = load i32, ptr %14, align 4
  %152 = call i32 @stats_tree_manip_node_int(i32 noundef 0, ptr noundef %150, ptr noundef @someipsd_entries_stats_tree_packet.tmp_str, i32 noundef %151, i1 noundef zeroext false, i32 noundef 1)
  br label %167

153:                                              ; preds = %106
  %154 = load ptr, ptr %11, align 8
  call void @stat_create_entry_summary_string(ptr noundef %154, ptr noundef @someipsd_entries_stats_tree_packet.tmp_str, i64 noundef 127)
  %155 = load ptr, ptr %6, align 8
  %156 = load i32, ptr %12, align 4
  %157 = call i32 @stats_tree_manip_node_int(i32 noundef 0, ptr noundef %155, ptr noundef @.str.180, i32 noundef %156, i1 noundef zeroext true, i32 noundef 1)
  store i32 %157, ptr %14, align 4
  %158 = load ptr, ptr %6, align 8
  %159 = load i32, ptr %14, align 4
  %160 = call i32 @stats_tree_manip_node_int(i32 noundef 0, ptr noundef %158, ptr noundef @someipsd_entries_stats_tree_packet.tmp_str, i32 noundef %159, i1 noundef zeroext false, i32 noundef 1)
  %161 = load ptr, ptr %6, align 8
  %162 = load i32, ptr %13, align 4
  %163 = call i32 @stats_tree_manip_node_int(i32 noundef 0, ptr noundef %161, ptr noundef @.str.180, i32 noundef %162, i1 noundef zeroext true, i32 noundef 1)
  store i32 %163, ptr %14, align 4
  %164 = load ptr, ptr %6, align 8
  %165 = load i32, ptr %14, align 4
  %166 = call i32 @stats_tree_manip_node_int(i32 noundef 0, ptr noundef %164, ptr noundef @someipsd_entries_stats_tree_packet.tmp_str, i32 noundef %165, i1 noundef zeroext false, i32 noundef 1)
  br label %167

167:                                              ; preds = %106, %153, %139, %125, %111
  br label %168

168:                                              ; preds = %167, %105
  call void @llvm.lifetime.end.p0(i64 4, ptr %14) #7
  call void @llvm.lifetime.end.p0(i64 4, ptr %13) #7
  call void @llvm.lifetime.end.p0(i64 4, ptr %12) #7
  call void @llvm.lifetime.end.p0(i64 8, ptr %11) #7
  ret i32 1
}