; Function Attrs: null_pointer_is_valid sspstrong uwtable
define internal noundef i32 @someipsd_entries_stats_tree_packet(ptr noundef %0, ptr noundef %1, ptr readnone captures(none) %2, ptr noundef readonly captures(address_is_null) %3, i32 %4) #0 {
  %.not = icmp eq ptr %3, null
  br i1 %.not, label %6, label %7

6:                                                ; preds = %5
  tail call void (ptr, ...) @proto_report_dissector_bug(ptr noundef nonnull @.str.193, ptr noundef nonnull @.str.194, i32 noundef 1035, ptr noundef nonnull @.str.195) #9
  unreachable

7:                                                ; preds = %5
  %8 = getelementptr inbounds nuw i8, ptr %1, i64 408
  %9 = load ptr, ptr %8, align 8
  %10 = getelementptr inbounds nuw i8, ptr %1, i64 160
  %11 = tail call ptr @address_to_str(ptr noundef %9, ptr noundef nonnull %10)
  %12 = tail call ptr @address_to_name(ptr noundef nonnull %10)
  %13 = tail call i32 (ptr, i64, i32, i64, ptr, ...) @__snprintf_chk(ptr noundef nonnull @someipsd_entries_stats_tree_packet.tmp_addr_str, i64 noundef 255, i32 noundef 2, i64 noundef 256, ptr noundef nonnull @.str.196, ptr noundef %11, ptr noundef %12)
  %14 = tail call i32 @stats_tree_manip_node_int(i32 noundef 0, ptr noundef %0, ptr noundef nonnull @.str.198, i32 noundef 0, i1 noundef zeroext false, i32 noundef 1)
  %15 = load i32, ptr @st_node_ip_src, align 4
  %16 = tail call i32 @stats_tree_manip_node_int(i32 noundef 0, ptr noundef %0, ptr noundef nonnull @someipsd_entries_stats_tree_packet.tmp_addr_str, i32 noundef %15, i1 noundef zeroext true, i32 noundef 1)
  %17 = load ptr, ptr %8, align 8
  %18 = getelementptr inbounds nuw i8, ptr %1, i64 184
  %19 = tail call ptr @address_to_str(ptr noundef %17, ptr noundef nonnull %18)
  %20 = tail call ptr @address_to_name(ptr noundef nonnull %18)
  %21 = tail call i32 (ptr, i64, i32, i64, ptr, ...) @__snprintf_chk(ptr noundef nonnull @someipsd_entries_stats_tree_packet.tmp_addr_str, i64 noundef 255, i32 noundef 2, i64 noundef 256, ptr noundef nonnull @.str.196, ptr noundef %19, ptr noundef %20)
  %22 = tail call i32 @stats_tree_manip_node_int(i32 noundef 0, ptr noundef %0, ptr noundef nonnull @.str.199, i32 noundef 0, i1 noundef zeroext false, i32 noundef 1)
  %23 = load i32, ptr @st_node_ip_dst, align 4
  %24 = tail call i32 @stats_tree_manip_node_int(i32 noundef 0, ptr noundef %0, ptr noundef nonnull @someipsd_entries_stats_tree_packet.tmp_addr_str, i32 noundef %23, i1 noundef zeroext true, i32 noundef 1)
  %25 = getelementptr inbounds nuw i8, ptr %3, i64 16
  %26 = load i32, ptr %25, align 4
  %27 = icmp eq i32 %26, 0
  %28 = load i8, ptr %3, align 4
  br i1 %27, label %29, label %32

29:                                               ; preds = %7
  switch i8 %28, label %39 [
    i8 1, label %.sink.split
    i8 6, label %30
    i8 7, label %31
  ]

30:                                               ; preds = %29
  br label %.sink.split

31:                                               ; preds = %29
  br label %.sink.split

32:                                               ; preds = %7
  %33 = icmp ult i8 %28, 8
  br i1 %33, label %switch.hole_check, label %39

switch.hole_check:                                ; preds = %32
  %switch.shifted = lshr i8 -61, %28
  %switch.lobit = trunc i8 %switch.shifted to i1
  br i1 %switch.lobit, label %switch.lookup, label %39

switch.lookup:                                    ; preds = %switch.hole_check
  %34 = zext nneg i8 %28 to i64
  %switch.gep = getelementptr inbounds nuw [8 x ptr], ptr @switch.table.someipsd_entries_stats_tree_packet, i64 0, i64 %34
  %switch.load = load ptr, ptr %switch.gep, align 8
  br label %.sink.split

.sink.split:                                      ; preds = %switch.lookup, %29, %31, %30
  %.str.82.sink77 = phi ptr [ @.str.86, %30 ], [ @.str.197, %31 ], [ @.str.80, %29 ], [ %switch.load, %switch.lookup ]
  tail call fastcc void @stat_create_entry_summary_string(ptr noundef %3)
  %35 = tail call i32 @stats_tree_manip_node_int(i32 noundef 0, ptr noundef %0, ptr noundef nonnull %.str.82.sink77, i32 noundef %16, i1 noundef zeroext true, i32 noundef 1)
  %36 = tail call i32 @stats_tree_manip_node_int(i32 noundef 0, ptr noundef %0, ptr noundef nonnull @someipsd_entries_stats_tree_packet.tmp_str, i32 noundef %35, i1 noundef zeroext false, i32 noundef 1)
  %37 = tail call i32 @stats_tree_manip_node_int(i32 noundef 0, ptr noundef %0, ptr noundef nonnull %.str.82.sink77, i32 noundef %24, i1 noundef zeroext true, i32 noundef 1)
  %38 = tail call i32 @stats_tree_manip_node_int(i32 noundef 0, ptr noundef %0, ptr noundef nonnull @someipsd_entries_stats_tree_packet.tmp_str, i32 noundef %37, i1 noundef zeroext false, i32 noundef 1)
  br label %39

39:                                               ; preds = %switch.hole_check, %32, %.sink.split, %29
  ret i32 1
}